target datalayout = "e-m:e-p270:32:32-p271:32:32-p272:64:64-i64:64-i128:128-f80:128-n8:16:32:64-S128"
target triple = "x86_64-pc-linux-gnu"

%struct._lv_dropdown_t = type { %struct._lv_obj_t, ptr, ptr, ptr, ptr, i32, i32, i32, i32, i8 }
%struct._lv_obj_t = type { ptr, ptr, ptr, ptr, ptr, %struct.lv_area_t, i32, i16, i16 }
%struct.lv_area_t = type { i32, i32, i32, i32 }

; Function Attrs: nounwind uwtable
define void @lv_dropdown_set_selected(ptr noundef %0, i32 noundef %1) #0 {
  %3 = alloca ptr, align 8
  %4 = alloca i32, align 4
  %5 = alloca ptr, align 8
  %6 = alloca i32, align 4
  store ptr %0, ptr %3, align 8, !tbaa !3
  store i32 %1, ptr %4, align 4, !tbaa !22
  br label %7

7:                                                ; preds = %2
  br label %8

8:                                                ; preds = %7
  call void @llvm.lifetime.start.p0(i64 8, ptr %5) #5
  %9 = load ptr, ptr %3, align 8, !tbaa !3
  store ptr %9, ptr %5, align 8, !tbaa !3
  %10 = load ptr, ptr %5, align 8, !tbaa !3
  %11 = getelementptr inbounds nuw %struct._lv_dropdown_t, ptr %10, i32 0, i32 6
  %12 = load i32, ptr %11, align 4, !tbaa !16
  %13 = load i32, ptr %4, align 4, !tbaa !22
  %14 = icmp eq i32 %12, %13
  br i1 %14, label %15, label %16

15:                                               ; preds = %8
  store i32 1, ptr %6, align 4
  br label %46

16:                                               ; preds = %8
  %17 = load i32, ptr %4, align 4, !tbaa !22
  %18 = load ptr, ptr %5, align 8, !tbaa !3
  %19 = getelementptr inbounds nuw %struct._lv_dropdown_t, ptr %18, i32 0, i32 5
  %20 = load i32, ptr %19, align 8, !tbaa !19
  %21 = icmp ult i32 %17, %20
  br i1 %21, label %22, label %24

22:                                               ; preds = %16
  %23 = load i32, ptr %4, align 4, !tbaa !22
  br label %29

24:                                               ; preds = %16
  %25 = load ptr, ptr %5, align 8, !tbaa !3
  %26 = getelementptr inbounds nuw %struct._lv_dropdown_t, ptr %25, i32 0, i32 5
  %27 = load i32, ptr %26, align 8, !tbaa !19
  %28 = sub i32 %27, 1
  br label %29

29:                                               ; preds = %24, %22
  %30 = phi i32 [ %23, %22 ], [ %28, %24 ]
  %31 = load ptr, ptr %5, align 8, !tbaa !3
  %32 = getelementptr inbounds nuw %struct._lv_dropdown_t, ptr %31, i32 0, i32 6
  store i32 %30, ptr %32, align 4, !tbaa !16
  %33 = load ptr, ptr %5, align 8, !tbaa !3
  %34 = getelementptr inbounds nuw %struct._lv_dropdown_t, ptr %33, i32 0, i32 6
  %35 = load i32, ptr %34, align 4, !tbaa !16
  %36 = load ptr, ptr %5, align 8, !tbaa !3
  %37 = getelementptr inbounds nuw %struct._lv_dropdown_t, ptr %36, i32 0, i32 7
  store i32 %35, ptr %37, align 8, !tbaa !17
  %38 = load ptr, ptr %5, align 8, !tbaa !3
  %39 = getelementptr inbounds nuw %struct._lv_dropdown_t, ptr %38, i32 0, i32 1
  %40 = load ptr, ptr %39, align 8, !tbaa !7
  %41 = icmp ne ptr %40, null
  br i1 %41, label %42, label %44

42:                                               ; preds = %29
  %43 = load ptr, ptr %3, align 8, !tbaa !3
  call void @position_to_selected(ptr noundef %43)
  br label %44

44:                                               ; preds = %42, %29
  %45 = load ptr, ptr %3, align 8, !tbaa !3
  call void @lv_obj_invalidate(ptr noundef %45)
  store i32 0, ptr %6, align 4
  br label %46

46:                                               ; preds = %44, %15
  call void @llvm.lifetime.end.p0(i64 8, ptr %5) #5
  %47 = load i32, ptr %6, align 4
  switch i32 %47, label %49 [
    i32 0, label %48
    i32 1, label %48
  ]

48:                                               ; preds = %46, %46
  ret void

49:                                               ; preds = %46
  unreachable
}