; Function Attrs: nounwind uwtable
define void @lv_dropdown_set_selected(ptr noundef %0, i32 noundef %1) local_unnamed_addr #0 {
  %3 = getelementptr inbounds nuw i8, ptr %0, i64 100
  %4 = load i32, ptr %3, align 4, !tbaa !15
  %5 = icmp eq i32 %4, %1
  br i1 %5, label %17, label %6

6:                                                ; preds = %2
  %7 = getelementptr inbounds nuw i8, ptr %0, i64 96
  %8 = load i32, ptr %7, align 8, !tbaa !18
  %9 = icmp ult i32 %1, %8
  %10 = add i32 %8, -1
  %11 = select i1 %9, i32 %1, i32 %10
  store i32 %11, ptr %3, align 4, !tbaa !15
  %12 = getelementptr inbounds nuw i8, ptr %0, i64 104
  store i32 %11, ptr %12, align 8, !tbaa !16
  %13 = getelementptr inbounds nuw i8, ptr %0, i64 64
  %14 = load ptr, ptr %13, align 8, !tbaa !3
  %.not = icmp eq ptr %14, null
  br i1 %.not, label %16, label %15

15:                                               ; preds = %6
  tail call fastcc void @position_to_selected(ptr noundef nonnull %0)
  br label %16

16:                                               ; preds = %15, %6
  tail call void @lv_obj_invalidate(ptr noundef nonnull %0) #7
  br label %17

17:                                               ; preds = %2, %16
  ret void
}